target datalayout = "e-m:e-p270:32:32-p271:32:32-p272:64:64-i64:64-i128:128-f80:128-n8:16:32:64-S128"
target triple = "x86_64-pc-linux-gnu"

%"struct.faiss::ScalarQuantizer::SQuantizer" = type { ptr }
%"struct.faiss::(anonymous namespace)::Quantizer8bitDirect" = type { %"struct.faiss::ScalarQuantizer::SQuantizer", i64 }
%"struct.faiss::ScalarQuantizer::SQDistanceComputer" = type { %"struct.faiss::FlatCodesDistanceComputer", ptr }
%"struct.faiss::FlatCodesDistanceComputer" = type { %"struct.faiss::DistanceComputer", ptr, i64 }
%"struct.faiss::DistanceComputer" = type { ptr }
%"struct.faiss::(anonymous namespace)::DCTemplate.27" = type { %"struct.faiss::ScalarQuantizer::SQDistanceComputer", %"struct.faiss::(anonymous namespace)::Quantizer8bitDirect" }
%"struct.faiss::(anonymous namespace)::SimilarityIP" = type <{ ptr, ptr, float, [4 x i8] }>
%"struct.faiss::InvertedListScanner" = type { ptr, i64, i8, i8, ptr, i64 }
%"struct.faiss::(anonymous namespace)::IVFSQScannerIP.72" = type { %"struct.faiss::InvertedListScanner", %"struct.faiss::(anonymous namespace)::DCTemplate.27", i8, float }

; Function Attrs: mustprogress nounwind uwtable
define internal void @_ZN5faiss12_GLOBAL__N_112SimilarityIPILi1EEC2EPKf(ptr noundef nonnull align 8 dereferenceable(20) %0, ptr noundef %1) unnamed_addr #1 align 2 {
  %3 = alloca ptr, align 8
  %4 = alloca ptr, align 8
  store ptr %0, ptr %3, align 8
  store ptr %1, ptr %4, align 8
  %5 = load ptr, ptr %3, align 8
  %6 = getelementptr inbounds %"struct.faiss::(anonymous namespace)::SimilarityIP", ptr %5, i32 0, i32 0
  %7 = load ptr, ptr %4, align 8
  store ptr %7, ptr %6, align 8
  ret void
}

; Function Attrs: mustprogress uwtable
define internal noundef float @_ZNK5faiss12_GLOBAL__N_110DCTemplateINS0_19Quantizer8bitDirectILi1EEENS0_12SimilarityIPILi1EEELi1EE16compute_distanceEPKfPKh(ptr noundef nonnull align 8 dereferenceable(48) %0, ptr noundef %1, ptr noundef %2) #0 align 2 {
  %4 = alloca ptr, align 8
  %5 = alloca float, align 4
  %6 = alloca ptr, align 8
  %7 = alloca ptr, align 8
  %8 = alloca ptr, align 8
  %9 = alloca ptr, align 8
  %10 = alloca i32, align 4
  %11 = alloca ptr, align 8
  %12 = alloca ptr, align 8
  %13 = alloca ptr, align 8
  %14 = alloca %"struct.faiss::(anonymous namespace)::SimilarityIP", align 8
  %15 = alloca i64, align 8
  %16 = alloca float, align 4
  store ptr %0, ptr %11, align 8
  store ptr %1, ptr %12, align 8
  store ptr %2, ptr %13, align 8
  %17 = load ptr, ptr %11, align 8
  %18 = load ptr, ptr %12, align 8
  call void @_ZN5faiss12_GLOBAL__N_112SimilarityIPILi1EEC2EPKf(ptr noundef nonnull align 8 dereferenceable(20) %14, ptr noundef %18)
  store ptr %14, ptr %7, align 8
  %19 = load ptr, ptr %7, align 8
  %20 = getelementptr inbounds %"struct.faiss::(anonymous namespace)::SimilarityIP", ptr %19, i32 0, i32 2
  store float 0.000000e+00, ptr %20, align 8
  %21 = load ptr, ptr %19, align 8
  %22 = getelementptr inbounds %"struct.faiss::(anonymous namespace)::SimilarityIP", ptr %19, i32 0, i32 1
  store ptr %21, ptr %22, align 8
  store i64 0, ptr %15, align 8
  br label %23

23:                                               ; preds = %50, %3
  %24 = load i64, ptr %15, align 8
  %25 = getelementptr inbounds %"struct.faiss::(anonymous namespace)::DCTemplate.27", ptr %17, i32 0, i32 1
  %26 = getelementptr inbounds %"struct.faiss::(anonymous namespace)::Quantizer8bitDirect", ptr %25, i32 0, i32 1
  %27 = load i64, ptr %26, align 8
  %28 = icmp ult i64 %24, %27
  br i1 %28, label %29, label %53

29:                                               ; preds = %23
  %30 = getelementptr inbounds %"struct.faiss::(anonymous namespace)::DCTemplate.27", ptr %17, i32 0, i32 1
  %31 = load ptr, ptr %13, align 8
  %32 = load i64, ptr %15, align 8
  %33 = trunc i64 %32 to i32
  store ptr %30, ptr %8, align 8
  store ptr %31, ptr %9, align 8
  store i32 %33, ptr %10, align 4
  %34 = load ptr, ptr %9, align 8
  %35 = load i32, ptr %10, align 4
  %36 = sext i32 %35 to i64
  %37 = getelementptr inbounds i8, ptr %34, i64 %36
  %38 = load i8, ptr %37, align 1
  %39 = uitofp i8 %38 to float
  store float %39, ptr %16, align 4
  %40 = load float, ptr %16, align 4
  store ptr %14, ptr %4, align 8
  store float %40, ptr %5, align 4
  %41 = load ptr, ptr %4, align 8
  %42 = getelementptr inbounds %"struct.faiss::(anonymous namespace)::SimilarityIP", ptr %41, i32 0, i32 1
  %43 = load ptr, ptr %42, align 8
  %44 = getelementptr inbounds float, ptr %43, i32 1
  store ptr %44, ptr %42, align 8
  %45 = load float, ptr %43, align 4
  %46 = load float, ptr %5, align 4
  %47 = getelementptr inbounds %"struct.faiss::(anonymous namespace)::SimilarityIP", ptr %41, i32 0, i32 2
  %48 = load float, ptr %47, align 8
  %49 = call float @llvm.fmuladd.f32(float %45, float %46, float %48)
  store float %49, ptr %47, align 8
  br label %50

50:                                               ; preds = %29
  %51 = load i64, ptr %15, align 8
  %52 = add i64 %51, 1
  store i64 %52, ptr %15, align 8
  br label %23, !llvm.loop !76

53:                                               ; preds = %23
  store ptr %14, ptr %6, align 8
  %54 = load ptr, ptr %6, align 8
  %55 = getelementptr inbounds %"struct.faiss::(anonymous namespace)::SimilarityIP", ptr %54, i32 0, i32 2
  %56 = load float, ptr %55, align 8
  ret float %56
}

; Function Attrs: mustprogress uwtable
define internal noundef float @_ZNK5faiss12_GLOBAL__N_110DCTemplateINS0_19Quantizer8bitDirectILi1EEENS0_12SimilarityIPILi1EEELi1EE13query_to_codeEPKh(ptr noundef nonnull align 8 dereferenceable(48) %0, ptr noundef %1) unnamed_addr #0 align 2 {
  %3 = alloca ptr, align 8
  %4 = alloca ptr, align 8
  store ptr %0, ptr %3, align 8
  store ptr %1, ptr %4, align 8
  %5 = load ptr, ptr %3, align 8
  %6 = getelementptr inbounds %"struct.faiss::ScalarQuantizer::SQDistanceComputer", ptr %5, i32 0, i32 1
  %7 = load ptr, ptr %6, align 8
  %8 = load ptr, ptr %4, align 8
  %9 = call noundef float @_ZNK5faiss12_GLOBAL__N_110DCTemplateINS0_19Quantizer8bitDirectILi1EEENS0_12SimilarityIPILi1EEELi1EE16compute_distanceEPKfPKh(ptr noundef nonnull align 8 dereferenceable(48) %5, ptr noundef %7, ptr noundef %8)
  ret float %9
}

; Function Attrs: mustprogress uwtable
define internal void @_ZNK5faiss12_GLOBAL__N_114IVFSQScannerIPINS0_10DCTemplateINS0_19Quantizer8bitDirectILi1EEENS0_12SimilarityIPILi1EEELi1EEELi1EE16scan_codes_rangeEmPKhPKlfRNS_16RangeQueryResultE(ptr noundef nonnull align 8 dereferenceable(96) %0, i64 noundef %1, ptr noundef %2, ptr noundef %3, float noundef %4, ptr noundef nonnull align 8 dereferenceable(24) %5) unnamed_addr #0 align 2 {
  %7 = alloca ptr, align 8
  %8 = alloca i64, align 8
  %9 = alloca ptr, align 8
  %10 = alloca ptr, align 8
  %11 = alloca float, align 4
  %12 = alloca ptr, align 8
  %13 = alloca i64, align 8
  %14 = alloca float, align 4
  %15 = alloca i64, align 8
  store ptr %0, ptr %7, align 8
  store i64 %1, ptr %8, align 8
  store ptr %2, ptr %9, align 8
  store ptr %3, ptr %10, align 8
  store float %4, ptr %11, align 4
  store ptr %5, ptr %12, align 8
  %16 = load ptr, ptr %7, align 8
  store i64 0, ptr %13, align 8
  br label %17

17:                                               ; preds = %64, %6
  %18 = load i64, ptr %13, align 8
  %19 = load i64, ptr %8, align 8
  %20 = icmp ult i64 %18, %19
  br i1 %20, label %21, label %71

21:                                               ; preds = %17
  %22 = getelementptr inbounds %"struct.faiss::InvertedListScanner", ptr %16, i32 0, i32 4
  %23 = load ptr, ptr %22, align 8
  %24 = load ptr, ptr %10, align 8
  %25 = load i64, ptr %13, align 8
  %26 = getelementptr inbounds i64, ptr %24, i64 %25
  %27 = load i64, ptr %26, align 8
  %28 = load ptr, ptr %23, align 8
  %29 = getelementptr inbounds ptr, ptr %28, i64 0
  %30 = load ptr, ptr %29, align 8
  %31 = call noundef zeroext i1 %30(ptr noundef nonnull align 8 dereferenceable(8) %23, i64 noundef %27)
  br i1 %31, label %33, label %32

32:                                               ; preds = %21
  br label %64

33:                                               ; preds = %21
  %34 = getelementptr inbounds %"struct.faiss::(anonymous namespace)::IVFSQScannerIP.72", ptr %16, i32 0, i32 3
  %35 = load float, ptr %34, align 4
  %36 = getelementptr inbounds %"struct.faiss::(anonymous namespace)::IVFSQScannerIP.72", ptr %16, i32 0, i32 1
  %37 = load ptr, ptr %9, align 8
  %38 = call noundef float @_ZNK5faiss12_GLOBAL__N_110DCTemplateINS0_19Quantizer8bitDirectILi1EEENS0_12SimilarityIPILi1EEELi1EE13query_to_codeEPKh(ptr noundef nonnull align 8 dereferenceable(48) %36, ptr noundef %37)
  %39 = fadd float %35, %38
  store float %39, ptr %14, align 4
  %40 = load float, ptr %14, align 4
  %41 = load float, ptr %11, align 4
  %42 = fcmp ogt float %40, %41
  br i1 %42, label %43, label %63

43:                                               ; preds = %33
  %44 = getelementptr inbounds %"struct.faiss::InvertedListScanner", ptr %16, i32 0, i32 3
  %45 = load i8, ptr %44, align 1
  %46 = trunc i8 %45 to i1
  br i1 %46, label %47, label %53

47:                                               ; preds = %43
  %48 = getelementptr inbounds %"struct.faiss::InvertedListScanner", ptr %16, i32 0, i32 1
  %49 = load i64, ptr %48, align 8
  %50 = shl i64 %49, 32
  %51 = load i64, ptr %13, align 8
  %52 = or i64 %50, %51
  br label %58

53:                                               ; preds = %43
  %54 = load ptr, ptr %10, align 8
  %55 = load i64, ptr %13, align 8
  %56 = getelementptr inbounds i64, ptr %54, i64 %55
  %57 = load i64, ptr %56, align 8
  br label %58

58:                                               ; preds = %53, %47
  %59 = phi i64 [ %52, %47 ], [ %57, %53 ]
  store i64 %59, ptr %15, align 8
  %60 = load ptr, ptr %12, align 8
  %61 = load float, ptr %14, align 4
  %62 = load i64, ptr %15, align 8
  call void @_ZN5faiss16RangeQueryResult3addEfl(ptr noundef nonnull align 8 dereferenceable(24) %60, float noundef %61, i64 noundef %62)
  br label %63

63:                                               ; preds = %58, %33
  br label %64

64:                                               ; preds = %63, %32
  %65 = load i64, ptr %13, align 8
  %66 = add i64 %65, 1
  store i64 %66, ptr %13, align 8
  %67 = getelementptr inbounds %"struct.faiss::InvertedListScanner", ptr %16, i32 0, i32 5
  %68 = load i64, ptr %67, align 8
  %69 = load ptr, ptr %9, align 8
  %70 = getelementptr inbounds i8, ptr %69, i64 %68
  store ptr %70, ptr %9, align 8
  br label %17, !llvm.loop !172

71:                                               ; preds = %17
  ret void
}