; Function Attrs: mustprogress uwtable
define internal void @_ZNK5faiss12_GLOBAL__N_114IVFSQScannerIPINS0_10DCTemplateINS0_19Quantizer8bitDirectILi1EEENS0_12SimilarityIPILi1EEELi1EEELi1EE16scan_codes_rangeEmPKhPKlfRNS_16RangeQueryResultE(ptr nocapture noundef nonnull readonly align 8 dereferenceable(96) %0, i64 noundef %1, ptr nocapture noundef readonly %2, ptr nocapture noundef readonly %3, float noundef %4, ptr noundef nonnull align 8 dereferenceable(24) %5) unnamed_addr #0 align 2 {
  %.not21 = icmp eq i64 %1, 0
  br i1 %.not21, label %._crit_edge, label %.lr.ph

.lr.ph:                                           ; preds = %6
  %7 = getelementptr inbounds i8, ptr %0, i64 24
  %8 = getelementptr inbounds i8, ptr %0, i64 92
  %9 = getelementptr inbounds i8, ptr %0, i64 80
  %10 = getelementptr inbounds i8, ptr %0, i64 64
  %11 = getelementptr inbounds i8, ptr %0, i64 17
  %12 = getelementptr inbounds i8, ptr %0, i64 8
  %13 = getelementptr inbounds i8, ptr %0, i64 32
  br label %14

14:                                               ; preds = %.lr.ph, %45
  %.019 = phi ptr [ %2, %.lr.ph ], [ %48, %45 ]
  %.01517 = phi i64 [ 0, %.lr.ph ], [ %46, %45 ]
  %15 = load ptr, ptr %7, align 8
  %16 = getelementptr inbounds i64, ptr %3, i64 %.01517
  %17 = load i64, ptr %16, align 8
  %18 = load ptr, ptr %15, align 8
  %19 = load ptr, ptr %18, align 8
  %20 = tail call noundef zeroext i1 %19(ptr noundef nonnull align 8 dereferenceable(8) %15, i64 noundef %17)
  br i1 %20, label %21, label %45

21:                                               ; preds = %14
  %22 = load float, ptr %8, align 4
  %.val.i = load i64, ptr %9, align 8
  %.not.i.i = icmp eq i64 %.val.i, 0
  br i1 %.not.i.i, label %_ZNK5faiss12_GLOBAL__N_110DCTemplateINS0_19Quantizer8bitDirectILi1EEENS0_12SimilarityIPILi1EEELi1EE13query_to_codeEPKh.exit, label %.lr.ph.i.preheader.i

.lr.ph.i.preheader.i:                             ; preds = %21
  %23 = load ptr, ptr %10, align 8
  br label %.lr.ph.i.i

.lr.ph.i.i:                                       ; preds = %.lr.ph.i.i, %.lr.ph.i.preheader.i
  %.04.i.i = phi i64 [ %31, %.lr.ph.i.i ], [ 0, %.lr.ph.i.preheader.i ]
  %.sroa.5.03.i.i = phi float [ %30, %.lr.ph.i.i ], [ 0.000000e+00, %.lr.ph.i.preheader.i ]
  %.sroa.2.02.i.i = phi ptr [ %28, %.lr.ph.i.i ], [ %23, %.lr.ph.i.preheader.i ]
  %sext.i.i = shl i64 %.04.i.i, 32
  %24 = ashr exact i64 %sext.i.i, 32
  %25 = getelementptr inbounds i8, ptr %.019, i64 %24
  %26 = load i8, ptr %25, align 1
  %27 = uitofp i8 %26 to float
  %28 = getelementptr inbounds i8, ptr %.sroa.2.02.i.i, i64 4
  %29 = load float, ptr %.sroa.2.02.i.i, align 4
  %30 = tail call float @llvm.fmuladd.f32(float %29, float %27, float %.sroa.5.03.i.i)
  %31 = add nuw i64 %.04.i.i, 1
  %exitcond.not.i.i = icmp eq i64 %31, %.val.i
  br i1 %exitcond.not.i.i, label %_ZNK5faiss12_GLOBAL__N_110DCTemplateINS0_19Quantizer8bitDirectILi1EEENS0_12SimilarityIPILi1EEELi1EE13query_to_codeEPKh.exit, label %.lr.ph.i.i, !llvm.loop !75

_ZNK5faiss12_GLOBAL__N_110DCTemplateINS0_19Quantizer8bitDirectILi1EEENS0_12SimilarityIPILi1EEELi1EE13query_to_codeEPKh.exit: ; preds = %.lr.ph.i.i, %21
  %.sroa.5.0.lcssa.i.i = phi float [ 0.000000e+00, %21 ], [ %30, %.lr.ph.i.i ]
  %32 = fadd float %22, %.sroa.5.0.lcssa.i.i
  %33 = fcmp ogt float %32, %4
  br i1 %33, label %34, label %45

34:                                               ; preds = %_ZNK5faiss12_GLOBAL__N_110DCTemplateINS0_19Quantizer8bitDirectILi1EEENS0_12SimilarityIPILi1EEELi1EE13query_to_codeEPKh.exit
  %35 = load i8, ptr %11, align 1
  %36 = and i8 %35, 1
  %.not = icmp eq i8 %36, 0
  br i1 %.not, label %41, label %37

37:                                               ; preds = %34
  %38 = load i64, ptr %12, align 8
  %39 = shl i64 %38, 32
  %40 = or i64 %39, %.01517
  br label %43

41:                                               ; preds = %34
  %42 = load i64, ptr %16, align 8
  br label %43

43:                                               ; preds = %41, %37
  %44 = phi i64 [ %40, %37 ], [ %42, %41 ]
  tail call void @_ZN5faiss16RangeQueryResult3addEfl(ptr noundef nonnull align 8 dereferenceable(24) %5, float noundef %32, i64 noundef %44)
  br label %45

45:                                               ; preds = %_ZNK5faiss12_GLOBAL__N_110DCTemplateINS0_19Quantizer8bitDirectILi1EEENS0_12SimilarityIPILi1EEELi1EE13query_to_codeEPKh.exit, %43, %14
  %46 = add nuw i64 %.01517, 1
  %47 = load i64, ptr %13, align 8
  %48 = getelementptr inbounds i8, ptr %.019, i64 %47
  %exitcond.not = icmp eq i64 %46, %1
  br i1 %exitcond.not, label %._crit_edge, label %14, !llvm.loop !171

._crit_edge:                                      ; preds = %45, %6
  ret void
}